target datalayout = "e-m:e-p270:32:32-p271:32:32-p272:64:64-i64:64-i128:128-f80:128-n8:16:32:64-S128"
target triple = "x86_64-pc-linux-gnu"

%struct.ossl_quic_tx_packetiser_st = type { %struct.ossl_quic_tx_packetiser_args_st, ptr, i64, ptr, ptr, %struct.quic_fifd_st, [3 x i64], %struct.OSSL_TIME, i64, i16, %struct.ossl_quic_frame_conn_close_st, i64, i64, [4 x %struct.txp_el], ptr, ptr, ptr, ptr, ptr }
%struct.ossl_quic_tx_packetiser_args_st = type { %struct.quic_conn_id_st, %struct.quic_conn_id_st, %union.bio_addr_st, i32, ptr, ptr, ptr, ptr, ptr, ptr, ptr, ptr, ptr, ptr, ptr, ptr, ptr, ptr, ptr, i32, [3 x ptr] }
%struct.quic_conn_id_st = type { i8, [20 x i8] }
%union.bio_addr_st = type { %struct.sockaddr_in6, [84 x i8] }
%struct.sockaddr_in6 = type { i16, i16, i32, %struct.in6_addr, i32 }
%struct.in6_addr = type { %union.anon }
%union.anon = type { [4 x i32] }
%struct.quic_fifd_st = type { ptr, ptr, ptr, ptr, ptr, ptr, ptr, ptr, ptr, ptr, ptr, ptr, ptr }
%struct.OSSL_TIME = type { i64 }
%struct.ossl_quic_frame_conn_close_st = type { i8, i64, i64, ptr, i64 }
%struct.txp_el = type { ptr, i64, ptr, i64 }

; Function Attrs: nounwind uwtable
define void @ossl_quic_tx_packetiser_schedule_ack(ptr noundef %0, i32 noundef %1) #0 {
  %3 = alloca ptr, align 8
  %4 = alloca i32, align 4
  store ptr %0, ptr %3, align 8, !tbaa !3
  store i32 %1, ptr %4, align 4, !tbaa !43
  %5 = load i32, ptr %4, align 4, !tbaa !43
  %6 = zext i32 %5 to i64
  %7 = shl i64 1, %6
  %8 = load ptr, ptr %3, align 8, !tbaa !3
  %9 = getelementptr inbounds nuw %struct.ossl_quic_tx_packetiser_st, ptr %8, i32 0, i32 9
  %10 = load i16, ptr %9, align 8
  %11 = lshr i16 %10, 4
  %12 = and i16 %11, 7
  %13 = zext i16 %12 to i32
  %14 = zext i32 %13 to i64
  %15 = or i64 %14, %7
  %16 = trunc i64 %15 to i32
  %17 = trunc i32 %16 to i16
  %18 = load i16, ptr %9, align 8
  %19 = and i16 %17, 7
  %20 = shl i16 %19, 4
  %21 = and i16 %18, -113
  %22 = or i16 %21, %20
  store i16 %22, ptr %9, align 8
  ret void
}